target datalayout = "e-m:e-p270:32:32-p271:32:32-p272:64:64-i64:64-i128:128-f80:128-n8:16:32:64-S128"
target triple = "x86_64-pc-linux-gnu"

%struct.VLC = type { i32, ptr, i32, i32 }
%struct.VLCElem = type { %union.anon.1 }
%union.anon.1 = type { %struct.anon }
%struct.anon = type { i16, i16 }

@mss4_init_vlc.vlc_buf = internal global [2146 x %struct.VLCElem] zeroinitializer, align 16

; Function Attrs: cold nounwind optsize uwtable
define internal void @mss4_init_vlc(ptr noundef %0, ptr noundef %1, ptr noundef %2, ptr noundef %3) #0 {
  %5 = alloca ptr, align 8
  %6 = alloca ptr, align 8
  %7 = alloca ptr, align 8
  %8 = alloca ptr, align 8
  %9 = alloca [162 x i8], align 16
  %10 = alloca i32, align 4
  %11 = alloca i32, align 4
  %12 = alloca i32, align 4
  store ptr %0, ptr %5, align 8, !tbaa !62
  store ptr %1, ptr %6, align 8, !tbaa !34
  store ptr %2, ptr %7, align 8, !tbaa !46
  store ptr %3, ptr %8, align 8, !tbaa !46
  call void @llvm.lifetime.start.p0(i64 162, ptr %9) #10
  call void @llvm.lifetime.start.p0(i64 4, ptr %10) #10
  call void @llvm.lifetime.start.p0(i64 4, ptr %11) #10
  call void @llvm.lifetime.start.p0(i64 4, ptr %12) #10
  store i32 0, ptr %12, align 4, !tbaa !31
  store i32 0, ptr %10, align 4, !tbaa !31
  br label %13

13:                                               ; preds = %39, %4
  %14 = load i32, ptr %10, align 4, !tbaa !31
  %15 = icmp slt i32 %14, 16
  br i1 %15, label %16, label %42

16:                                               ; preds = %13
  store i32 0, ptr %11, align 4, !tbaa !31
  br label %17

17:                                               ; preds = %35, %16
  %18 = load i32, ptr %11, align 4, !tbaa !31
  %19 = load ptr, ptr %7, align 8, !tbaa !46
  %20 = load i32, ptr %10, align 4, !tbaa !31
  %21 = sext i32 %20 to i64
  %22 = getelementptr inbounds i8, ptr %19, i64 %21
  %23 = load i8, ptr %22, align 1, !tbaa !64
  %24 = zext i8 %23 to i32
  %25 = icmp slt i32 %18, %24
  br i1 %25, label %26, label %38

26:                                               ; preds = %17
  %27 = load i32, ptr %10, align 4, !tbaa !31
  %28 = add nsw i32 %27, 1
  %29 = trunc i32 %28 to i8
  %30 = load i32, ptr %12, align 4, !tbaa !31
  %31 = sext i32 %30 to i64
  %32 = getelementptr inbounds [162 x i8], ptr %9, i64 0, i64 %31
  store i8 %29, ptr %32, align 1, !tbaa !64
  %33 = load i32, ptr %12, align 4, !tbaa !31
  %34 = add nsw i32 %33, 1
  store i32 %34, ptr %12, align 4, !tbaa !31
  br label %35

35:                                               ; preds = %26
  %36 = load i32, ptr %11, align 4, !tbaa !31
  %37 = add nsw i32 %36, 1
  store i32 %37, ptr %11, align 4, !tbaa !31
  br label %17, !llvm.loop !65

38:                                               ; preds = %17
  br label %39

39:                                               ; preds = %38
  %40 = load i32, ptr %10, align 4, !tbaa !31
  %41 = add nsw i32 %40, 1
  store i32 %41, ptr %10, align 4, !tbaa !31
  br label %13, !llvm.loop !66

42:                                               ; preds = %13
  %43 = load ptr, ptr %6, align 8, !tbaa !34
  %44 = load i32, ptr %43, align 4, !tbaa !31
  %45 = zext i32 %44 to i64
  %46 = getelementptr inbounds nuw [2146 x %struct.VLCElem], ptr @mss4_init_vlc.vlc_buf, i64 0, i64 %45
  %47 = load ptr, ptr %5, align 8, !tbaa !62
  %48 = getelementptr inbounds nuw %struct.VLC, ptr %47, i32 0, i32 1
  store ptr %46, ptr %48, align 8, !tbaa !67
  %49 = load ptr, ptr %6, align 8, !tbaa !34
  %50 = load i32, ptr %49, align 4, !tbaa !31
  %51 = zext i32 %50 to i64
  %52 = sub i64 2146, %51
  %53 = trunc i64 %52 to i32
  %54 = load ptr, ptr %5, align 8, !tbaa !62
  %55 = getelementptr inbounds nuw %struct.VLC, ptr %54, i32 0, i32 3
  store i32 %53, ptr %55, align 4, !tbaa !70
  %56 = load ptr, ptr %5, align 8, !tbaa !62
  %57 = load i32, ptr %12, align 4, !tbaa !31
  %58 = sub nsw i32 %57, 1
  %59 = sext i32 %58 to i64
  %60 = getelementptr inbounds [162 x i8], ptr %9, i64 0, i64 %59
  %61 = load i8, ptr %60, align 1, !tbaa !64
  %62 = zext i8 %61 to i32
  %63 = icmp sgt i32 %62, 9
  br i1 %63, label %64, label %65

64:                                               ; preds = %42
  br label %72

65:                                               ; preds = %42
  %66 = load i32, ptr %12, align 4, !tbaa !31
  %67 = sub nsw i32 %66, 1
  %68 = sext i32 %67 to i64
  %69 = getelementptr inbounds [162 x i8], ptr %9, i64 0, i64 %68
  %70 = load i8, ptr %69, align 1, !tbaa !64
  %71 = zext i8 %70 to i32
  br label %72

72:                                               ; preds = %65, %64
  %73 = phi i32 [ 9, %64 ], [ %71, %65 ]
  %74 = load i32, ptr %12, align 4, !tbaa !31
  %75 = getelementptr inbounds [162 x i8], ptr %9, i64 0, i64 0
  %76 = load ptr, ptr %8, align 8, !tbaa !46
  %77 = call i32 @ff_vlc_init_from_lengths(ptr noundef %56, i32 noundef %73, i32 noundef %74, ptr noundef %75, i32 noundef 1, ptr noundef %76, i32 noundef 1, i32 noundef 1, i32 noundef 0, i32 noundef 3, ptr noundef null)
  %78 = load ptr, ptr %5, align 8, !tbaa !62
  %79 = getelementptr inbounds nuw %struct.VLC, ptr %78, i32 0, i32 2
  %80 = load i32, ptr %79, align 8, !tbaa !71
  %81 = load ptr, ptr %6, align 8, !tbaa !34
  %82 = load i32, ptr %81, align 4, !tbaa !31
  %83 = add i32 %82, %80
  store i32 %83, ptr %81, align 4, !tbaa !31
  call void @llvm.lifetime.end.p0(i64 4, ptr %12) #10
  call void @llvm.lifetime.end.p0(i64 4, ptr %11) #10
  call void @llvm.lifetime.end.p0(i64 4, ptr %10) #10
  call void @llvm.lifetime.end.p0(i64 162, ptr %9) #10
  ret void
}