; Function Attrs: cold nounwind optsize uwtable
define internal fastcc void @mss4_init_vlc(ptr noundef %0, ptr noundef nonnull captures(none) %1, ptr noundef readonly captures(none) %2, ptr noundef %3) unnamed_addr #0 {
  %5 = alloca [162 x i8], align 16
  call void @llvm.lifetime.start.p0(i64 162, ptr nonnull %5) #8
  br label %.preheader

.preheader:                                       ; preds = %4, %._crit_edge
  %indvars.iv = phi i64 [ 0, %4 ], [ %indvars.iv.next, %._crit_edge ]
  %.025 = phi i32 [ 0, %4 ], [ %.1.lcssa, %._crit_edge ]
  %6 = getelementptr inbounds nuw i8, ptr %2, i64 %indvars.iv
  %7 = load i8, ptr %6, align 1, !tbaa !39
  %.not = icmp eq i8 %7, 0
  br i1 %.not, label %._crit_edge, label %.lr.ph

.lr.ph:                                           ; preds = %.preheader
  %8 = zext i8 %7 to i32
  %9 = trunc i64 %indvars.iv to i8
  %10 = add nuw nsw i8 %9, 1
  %11 = sext i32 %.025 to i64
  %scevgep = getelementptr i8, ptr %5, i64 %11
  %12 = zext i8 %7 to i64
  call void @llvm.memset.p0.i64(ptr align 1 %scevgep, i8 %10, i64 %12, i1 false), !tbaa !39
  %13 = add i32 %.025, %8
  br label %._crit_edge

._crit_edge:                                      ; preds = %.lr.ph, %.preheader
  %.1.lcssa = phi i32 [ %.025, %.preheader ], [ %13, %.lr.ph ]
  %indvars.iv.next = add nuw nsw i64 %indvars.iv, 1
  %exitcond.not = icmp eq i64 %indvars.iv.next, 16
  br i1 %exitcond.not, label %14, label %.preheader, !llvm.loop !84

14:                                               ; preds = %._crit_edge
  %15 = load i32, ptr %1, align 4, !tbaa !48
  %16 = zext i32 %15 to i64
  %17 = getelementptr inbounds nuw [2146 x %struct.VLCElem], ptr @mss4_init_vlc.vlc_buf, i64 0, i64 %16
  %18 = getelementptr inbounds nuw i8, ptr %0, i64 8
  store ptr %17, ptr %18, align 8, !tbaa !59
  %19 = sub i32 2146, %15
  %20 = getelementptr inbounds nuw i8, ptr %0, i64 20
  store i32 %19, ptr %20, align 4, !tbaa !85
  %21 = add nsw i32 %.1.lcssa, -1
  %22 = sext i32 %21 to i64
  %23 = getelementptr inbounds [162 x i8], ptr %5, i64 0, i64 %22
  %24 = load i8, ptr %23, align 1, !tbaa !39
  %narrow = tail call i8 @llvm.umin.i8(i8 %24, i8 9)
  %spec.select = zext nneg i8 %narrow to i32
  %25 = call i32 @ff_vlc_init_from_lengths(ptr noundef %0, i32 noundef %spec.select, i32 noundef %.1.lcssa, ptr noundef nonnull %5, i32 noundef 1, ptr noundef %3, i32 noundef 1, i32 noundef 1, i32 noundef 0, i32 noundef 3, ptr noundef null) #8
  %26 = getelementptr inbounds nuw i8, ptr %0, i64 16
  %27 = load i32, ptr %26, align 8, !tbaa !86
  %28 = load i32, ptr %1, align 4, !tbaa !48
  %29 = add i32 %28, %27
  store i32 %29, ptr %1, align 4, !tbaa !48
  call void @llvm.lifetime.end.p0(i64 162, ptr nonnull %5) #8
  ret void
}